target datalayout = "e-m:e-p270:32:32-p271:32:32-p272:64:64-i64:64-i128:128-f80:128-n8:16:32:64-S128"
target triple = "x86_64-pc-linux-gnu"

%struct.Vector2 = type { float, float }

; Function Attrs: nounwind uwtable
define <2 x float> @GetSplinePointLinear(<2 x float> %0, <2 x float> %1, float noundef %2) #0 {
  %4 = alloca %struct.Vector2, align 4
  %5 = alloca %struct.Vector2, align 4
  %6 = alloca %struct.Vector2, align 4
  %7 = alloca float, align 4
  store <2 x float> %0, ptr %5, align 4
  store <2 x float> %1, ptr %6, align 4
  store float %2, ptr %7, align 4
  call void @llvm.memset.p0.i64(ptr align 4 %4, i8 0, i64 8, i1 false)
  %8 = getelementptr inbounds nuw %struct.Vector2, ptr %5, i32 0, i32 0
  %9 = load float, ptr %8, align 4
  %10 = load float, ptr %7, align 4
  %11 = fsub float 1.000000e+00, %10
  %12 = getelementptr inbounds nuw %struct.Vector2, ptr %6, i32 0, i32 0
  %13 = load float, ptr %12, align 4
  %14 = load float, ptr %7, align 4
  %15 = fmul float %13, %14
  %16 = call float @llvm.fmuladd.f32(float %9, float %11, float %15)
  %17 = getelementptr inbounds nuw %struct.Vector2, ptr %4, i32 0, i32 0
  store float %16, ptr %17, align 4
  %18 = getelementptr inbounds nuw %struct.Vector2, ptr %5, i32 0, i32 1
  %19 = load float, ptr %18, align 4
  %20 = load float, ptr %7, align 4
  %21 = fsub float 1.000000e+00, %20
  %22 = getelementptr inbounds nuw %struct.Vector2, ptr %6, i32 0, i32 1
  %23 = load float, ptr %22, align 4
  %24 = load float, ptr %7, align 4
  %25 = fmul float %23, %24
  %26 = call float @llvm.fmuladd.f32(float %19, float %21, float %25)
  %27 = getelementptr inbounds nuw %struct.Vector2, ptr %4, i32 0, i32 1
  store float %26, ptr %27, align 4
  %28 = load <2 x float>, ptr %4, align 4
  ret <2 x float> %28
}