; Function Attrs: mustprogress nofree norecurse nosync nounwind willreturn memory(none) uwtable
define <2 x float> @GetSplinePointLinear(<2 x float> %0, <2 x float> %1, float noundef %2) local_unnamed_addr #11 {
  %.sroa.04.0.vec.extract = extractelement <2 x float> %0, i64 0
  %4 = fsub float 1.000000e+00, %2
  %.sroa.0.0.vec.extract = extractelement <2 x float> %1, i64 0
  %5 = fmul float %.sroa.0.0.vec.extract, %2
  %6 = tail call float @llvm.fmuladd.f32(float %.sroa.04.0.vec.extract, float %4, float %5)
  %.sroa.05.0.vec.insert = insertelement <2 x float> poison, float %6, i64 0
  %.sroa.04.4.vec.extract = extractelement <2 x float> %0, i64 1
  %.sroa.0.4.vec.extract = extractelement <2 x float> %1, i64 1
  %7 = fmul float %.sroa.0.4.vec.extract, %2
  %8 = tail call float @llvm.fmuladd.f32(float %.sroa.04.4.vec.extract, float %4, float %7)
  %.sroa.05.4.vec.insert = insertelement <2 x float> %.sroa.05.0.vec.insert, float %8, i64 1
  ret <2 x float> %.sroa.05.4.vec.insert
}